; Function Attrs: nounwind uwtable
define range(i32 -1, 1) i32 @H5P__get_size_plist(ptr noundef readonly captures(none) %0, ptr noundef %1, ptr noundef writeonly captures(none) %2) local_unnamed_addr #0 {
  %4 = load i8, ptr @H5P_init_g, align 1, !tbaa !3, !range !7, !noundef !8
  %5 = trunc nuw i8 %4 to i1
  %6 = load i8, ptr @H5_libterm_g, align 1, !range !7
  %7 = trunc nuw i8 %6 to i1
  %8 = xor i1 %7, true
  %9 = select i1 %5, i1 true, i1 %8
  br i1 %9, label %10, label %20, !prof !9

10:                                               ; preds = %3
  %11 = tail call ptr @H5P__find_prop_plist(ptr noundef %0, ptr noundef %1)
  %12 = icmp eq ptr %11, null
  br i1 %12, label %13, label %17

13:                                               ; preds = %10
  %14 = load i64, ptr @H5E_PLIST_g, align 8, !tbaa !10
  %15 = load i64, ptr @H5E_NOTFOUND_g, align 8, !tbaa !10
  %16 = tail call i32 (ptr, ptr, i32, i64, i64, ptr, ...) @H5E_printf_stack(ptr noundef nonnull @.str.7, ptr noundef nonnull @__func__.H5P__get_size_plist, i32 noundef 3514, i64 noundef %14, i64 noundef %15, ptr noundef nonnull @.str.48) #14
  br label %20

17:                                               ; preds = %10
  %18 = getelementptr inbounds nuw i8, ptr %11, i64 8
  %19 = load i64, ptr %18, align 8, !tbaa !73
  store i64 %19, ptr %2, align 8, !tbaa !10
  br label %20

20:                                               ; preds = %13, %17, %3
  %.0 = phi i32 [ -1, %13 ], [ 0, %17 ], [ 0, %3 ]
  ret i32 %.0
}